target datalayout = "e-m:e-p270:32:32-p271:32:32-p272:64:64-i64:64-i128:128-f80:128-n8:16:32:64-S128"
target triple = "x86_64-pc-linux-gnu"

%class.mpz = type { i32, i8, ptr }
%class.svector.1 = type { %class.vector.2 }
%class.vector.2 = type { ptr }
%"class.upolynomial::core_manager" = type { ptr, %class.mpzzp_manager, %class.svector.1, %class.svector.1, %class.svector.1, %class.svector.1, %class.svector.1, %class.svector.1, %class.svector.1, [6 x %class.svector.1], %class.svector.1, %class.svector.1, %class.svector.1 }
%class.mpzzp_manager = type { ptr, i8, %class.mpz, %class.mpz, %class.mpz, i8, %class.mpz, %class.mpz, %class.mpz, %class.mpz }
%class._scoped_numeral = type { ptr, %class.mpz }

; Function Attrs: inlinehint mustprogress nounwind uwtable
define linkonce_odr hidden noundef zeroext i1 @_ZNK3mpz8is_smallEv(ptr noundef nonnull align 8 dereferenceable(16) %0) #10 comdat align 2 {
  %2 = alloca ptr, align 8
  store ptr %0, ptr %2, align 8, !tbaa !26
  %3 = load ptr, ptr %2, align 8
  %4 = getelementptr inbounds nuw %class.mpz, ptr %3, i32 0, i32 1
  %5 = load i8, ptr %4, align 4
  %6 = and i8 %5, 1
  %7 = zext i8 %6 to i32
  %8 = icmp eq i32 %7, 0
  ret i1 %8
}

; Function Attrs: mustprogress nounwind uwtable
define linkonce_odr hidden noundef i32 @_ZN11mpz_managerILb0EE4signERK3mpz(ptr noundef nonnull align 8 dereferenceable(16) %0) #5 comdat align 2 {
  %2 = alloca ptr, align 8
  store ptr %0, ptr %2, align 8, !tbaa !26
  %3 = load ptr, ptr %2, align 8, !tbaa !26
  %4 = getelementptr inbounds nuw %class.mpz, ptr %3, i32 0, i32 0
  %5 = load i32, ptr %4, align 8, !tbaa !28
  ret i32 %5
}

; Function Attrs: mustprogress nounwind uwtable
define linkonce_odr hidden void @_ZN3mpz3setEi(ptr noundef nonnull align 8 dereferenceable(16) %0, i32 noundef %1) #5 comdat align 2 {
  %3 = alloca ptr, align 8
  %4 = alloca i32, align 4
  store ptr %0, ptr %3, align 8, !tbaa !26
  store i32 %1, ptr %4, align 4, !tbaa !33
  %5 = load ptr, ptr %3, align 8
  %6 = load i32, ptr %4, align 4, !tbaa !33
  %7 = getelementptr inbounds nuw %class.mpz, ptr %5, i32 0, i32 0
  store i32 %6, ptr %7, align 8, !tbaa !28
  %8 = getelementptr inbounds nuw %class.mpz, ptr %5, i32 0, i32 1
  %9 = load i8, ptr %8, align 4
  %10 = and i8 %9, -2
  %11 = or i8 %10, 0
  store i8 %11, ptr %8, align 4
  ret void
}

; Function Attrs: inlinehint mustprogress nounwind uwtable
define linkonce_odr hidden noundef i32 @_ZNK3mpz5valueEv(ptr noundef nonnull align 8 dereferenceable(16) %0) #10 comdat align 2 {
  %2 = alloca ptr, align 8
  store ptr %0, ptr %2, align 8, !tbaa !26
  %3 = load ptr, ptr %2, align 8
  %4 = getelementptr inbounds nuw %class.mpz, ptr %3, i32 0, i32 0
  %5 = load i32, ptr %4, align 8, !tbaa !28
  ret i32 %5
}

; Function Attrs: mustprogress uwtable
define linkonce_odr hidden noundef zeroext i1 @_ZN11mpz_managerILb0EE8is_smallERK3mpz(ptr noundef nonnull align 8 dereferenceable(16) %0) #4 comdat align 2 {
  %2 = alloca ptr, align 8
  store ptr %0, ptr %2, align 8, !tbaa !26
  %3 = load ptr, ptr %2, align 8, !tbaa !26
  %4 = call noundef zeroext i1 @_ZNK3mpz8is_smallEv(ptr noundef nonnull align 8 dereferenceable(16) %3)
  ret i1 %4
}

; Function Attrs: mustprogress uwtable
define linkonce_odr hidden noundef zeroext i1 @_ZN11mpz_managerILb0EE7is_zeroERK3mpz(ptr noundef nonnull align 8 dereferenceable(16) %0) #4 comdat align 2 {
  %2 = alloca ptr, align 8
  store ptr %0, ptr %2, align 8, !tbaa !26
  %3 = load ptr, ptr %2, align 8, !tbaa !26
  %4 = call noundef i32 @_ZN11mpz_managerILb0EE4signERK3mpz(ptr noundef nonnull align 8 dereferenceable(16) %3)
  %5 = icmp eq i32 %4, 0
  ret i1 %5
}

; Function Attrs: mustprogress uwtable
define linkonce_odr hidden void @_ZN13mpzzp_manager11p_normalizeER3mpz(ptr noundef nonnull align 8 dereferenceable(136) %0, ptr noundef nonnull align 8 dereferenceable(16) %1) #4 comdat align 2 {
  %3 = alloca ptr, align 8
  %4 = alloca ptr, align 8
  store ptr %0, ptr %3, align 8, !tbaa !31
  store ptr %1, ptr %4, align 8, !tbaa !26
  %5 = load ptr, ptr %3, align 8
  %6 = getelementptr inbounds nuw %class.mpzzp_manager, ptr %5, i32 0, i32 1
  %7 = load i8, ptr %6, align 8, !tbaa !61, !range !78, !noundef !79
  %8 = trunc i8 %7 to i1
  br i1 %8, label %11, label %9

9:                                                ; preds = %2
  %10 = load ptr, ptr %4, align 8, !tbaa !26
  call void @_ZN13mpzzp_manager16p_normalize_coreER3mpz(ptr noundef nonnull align 8 dereferenceable(136) %5, ptr noundef nonnull align 8 dereferenceable(16) %10)
  br label %11

11:                                               ; preds = %9, %2
  ret void
}

; Function Attrs: mustprogress uwtable
define linkonce_odr hidden void @_ZN11mpz_managerILb0EE3setER3mpzRKS1_(ptr noundef nonnull align 8 dereferenceable(600) %0, ptr noundef nonnull align 8 dereferenceable(16) %1, ptr noundef nonnull align 8 dereferenceable(16) %2) #4 comdat align 2 {
  %4 = alloca ptr, align 8
  %5 = alloca ptr, align 8
  %6 = alloca ptr, align 8
  store ptr %0, ptr %4, align 8, !tbaa !59
  store ptr %1, ptr %5, align 8, !tbaa !26
  store ptr %2, ptr %6, align 8, !tbaa !26
  %7 = load ptr, ptr %4, align 8
  %8 = load ptr, ptr %6, align 8, !tbaa !26
  %9 = call noundef zeroext i1 @_ZN11mpz_managerILb0EE8is_smallERK3mpz(ptr noundef nonnull align 8 dereferenceable(16) %8)
  br i1 %9, label %10, label %14

10:                                               ; preds = %3
  %11 = load ptr, ptr %5, align 8, !tbaa !26
  %12 = load ptr, ptr %6, align 8, !tbaa !26
  %13 = call noundef i32 @_ZNK3mpz5valueEv(ptr noundef nonnull align 8 dereferenceable(16) %12)
  call void @_ZN3mpz3setEi(ptr noundef nonnull align 8 dereferenceable(16) %11, i32 noundef %13)
  br label %17

14:                                               ; preds = %3
  %15 = load ptr, ptr %5, align 8, !tbaa !26
  %16 = load ptr, ptr %6, align 8, !tbaa !26
  call void @_ZN11mpz_managerILb0EE7big_setER3mpzRKS1_(ptr noundef nonnull align 8 dereferenceable(600) %7, ptr noundef nonnull align 8 dereferenceable(16) %15, ptr noundef nonnull align 8 dereferenceable(16) %16)
  br label %17

17:                                               ; preds = %14, %10
  ret void
}

; Function Attrs: mustprogress nounwind uwtable
define linkonce_odr hidden noundef nonnull align 8 dereferenceable(600) ptr @_ZNK13mpzzp_manager1mEv(ptr noundef nonnull align 8 dereferenceable(136) %0) #5 comdat align 2 {
  %2 = alloca ptr, align 8
  store ptr %0, ptr %2, align 8, !tbaa !31
  %3 = load ptr, ptr %2, align 8
  %4 = getelementptr inbounds nuw %class.mpzzp_manager, ptr %3, i32 0, i32 0
  %5 = load ptr, ptr %4, align 8, !tbaa !119
  ret ptr %5
}

; Function Attrs: mustprogress nounwind uwtable
define linkonce_odr hidden void @_ZN3mpzC2Ev(ptr noundef nonnull align 8 dereferenceable(16) %0) unnamed_addr #5 comdat align 2 {
  %2 = alloca ptr, align 8
  store ptr %0, ptr %2, align 8, !tbaa !26
  %3 = load ptr, ptr %2, align 8
  %4 = getelementptr inbounds nuw %class.mpz, ptr %3, i32 0, i32 0
  store i32 0, ptr %4, align 8, !tbaa !28
  %5 = getelementptr inbounds nuw %class.mpz, ptr %3, i32 0, i32 1
  %6 = load i8, ptr %5, align 4
  %7 = and i8 %6, -2
  %8 = or i8 %7, 0
  store i8 %8, ptr %5, align 4
  %9 = getelementptr inbounds nuw %class.mpz, ptr %3, i32 0, i32 1
  %10 = load i8, ptr %9, align 4
  %11 = and i8 %10, -3
  %12 = or i8 %11, 0
  store i8 %12, ptr %9, align 4
  %13 = getelementptr inbounds nuw %class.mpz, ptr %3, i32 0, i32 2
  store ptr null, ptr %13, align 8, !tbaa !29
  ret void
}

; Function Attrs: mustprogress uwtable
define linkonce_odr hidden void @_ZN13mpzzp_manager3mulERK3mpzS2_RS0_(ptr noundef nonnull align 8 dereferenceable(136) %0, ptr noundef nonnull align 8 dereferenceable(16) %1, ptr noundef nonnull align 8 dereferenceable(16) %2, ptr noundef nonnull align 8 dereferenceable(16) %3) #4 comdat align 2 {
  %5 = alloca ptr, align 8
  %6 = alloca ptr, align 8
  %7 = alloca ptr, align 8
  %8 = alloca ptr, align 8
  store ptr %0, ptr %5, align 8, !tbaa !31
  store ptr %1, ptr %6, align 8, !tbaa !26
  store ptr %2, ptr %7, align 8, !tbaa !26
  store ptr %3, ptr %8, align 8, !tbaa !26
  %9 = load ptr, ptr %5, align 8
  %10 = call noundef nonnull align 8 dereferenceable(600) ptr @_ZNK13mpzzp_manager1mEv(ptr noundef nonnull align 8 dereferenceable(136) %9)
  %11 = load ptr, ptr %6, align 8, !tbaa !26
  %12 = load ptr, ptr %7, align 8, !tbaa !26
  %13 = load ptr, ptr %8, align 8, !tbaa !26
  call void @_ZN11mpz_managerILb0EE3mulERK3mpzS3_RS1_(ptr noundef nonnull align 8 dereferenceable(600) %10, ptr noundef nonnull align 8 dereferenceable(16) %11, ptr noundef nonnull align 8 dereferenceable(16) %12, ptr noundef nonnull align 8 dereferenceable(16) %13)
  %14 = load ptr, ptr %8, align 8, !tbaa !26
  call void @_ZN13mpzzp_manager11p_normalizeER3mpz(ptr noundef nonnull align 8 dereferenceable(136) %9, ptr noundef nonnull align 8 dereferenceable(16) %14)
  ret void
}

; Function Attrs: mustprogress uwtable
define linkonce_odr hidden noundef zeroext i1 @_ZN13mpzzp_manager7is_zeroERK3mpz(ptr noundef nonnull align 8 dereferenceable(136) %0, ptr noundef nonnull align 8 dereferenceable(16) %1) #4 comdat align 2 {
  %3 = alloca ptr, align 8
  %4 = alloca ptr, align 8
  store ptr %0, ptr %3, align 8, !tbaa !31
  store ptr %1, ptr %4, align 8, !tbaa !26
  %5 = load ptr, ptr %4, align 8, !tbaa !26
  %6 = call noundef zeroext i1 @_ZN11mpz_managerILb0EE7is_zeroERK3mpz(ptr noundef nonnull align 8 dereferenceable(16) %5)
  ret i1 %6
}

; Function Attrs: mustprogress uwtable
define linkonce_odr hidden void @_ZN13mpzzp_manager3setER3mpzRKS0_(ptr noundef nonnull align 8 dereferenceable(136) %0, ptr noundef nonnull align 8 dereferenceable(16) %1, ptr noundef nonnull align 8 dereferenceable(16) %2) #4 comdat align 2 {
  %4 = alloca ptr, align 8
  %5 = alloca ptr, align 8
  %6 = alloca ptr, align 8
  store ptr %0, ptr %4, align 8, !tbaa !31
  store ptr %1, ptr %5, align 8, !tbaa !26
  store ptr %2, ptr %6, align 8, !tbaa !26
  %7 = load ptr, ptr %4, align 8
  %8 = call noundef nonnull align 8 dereferenceable(600) ptr @_ZNK13mpzzp_manager1mEv(ptr noundef nonnull align 8 dereferenceable(136) %7)
  %9 = load ptr, ptr %5, align 8, !tbaa !26
  %10 = load ptr, ptr %6, align 8, !tbaa !26
  call void @_ZN11mpz_managerILb0EE3setER3mpzRKS1_(ptr noundef nonnull align 8 dereferenceable(600) %8, ptr noundef nonnull align 8 dereferenceable(16) %9, ptr noundef nonnull align 8 dereferenceable(16) %10)
  %11 = load ptr, ptr %5, align 8, !tbaa !26
  call void @_ZN13mpzzp_manager11p_normalizeER3mpz(ptr noundef nonnull align 8 dereferenceable(136) %7, ptr noundef nonnull align 8 dereferenceable(16) %11)
  ret void
}

; Function Attrs: mustprogress nounwind uwtable
define linkonce_odr hidden noundef nonnull align 8 dereferenceable(16) ptr @_ZN15_scoped_numeralI13mpzzp_managerEcvR3mpzEv(ptr noundef nonnull align 8 dereferenceable(24) %0) #5 comdat align 2 {
  %2 = alloca ptr, align 8
  store ptr %0, ptr %2, align 8, !tbaa !96
  %3 = load ptr, ptr %2, align 8
  %4 = getelementptr inbounds nuw %class._scoped_numeral, ptr %3, i32 0, i32 1
  ret ptr %4
}

; Function Attrs: mustprogress uwtable
define linkonce_odr hidden void @_ZN15_scoped_numeralI13mpzzp_managerEC2ERS0_(ptr noundef nonnull align 8 dereferenceable(24) %0, ptr noundef nonnull align 8 dereferenceable(136) %1) unnamed_addr #4 comdat align 2 {
  %3 = alloca ptr, align 8
  %4 = alloca ptr, align 8
  store ptr %0, ptr %3, align 8, !tbaa !96
  store ptr %1, ptr %4, align 8, !tbaa !31
  %5 = load ptr, ptr %3, align 8
  %6 = getelementptr inbounds nuw %class._scoped_numeral, ptr %5, i32 0, i32 0
  %7 = load ptr, ptr %4, align 8, !tbaa !31
  store ptr %7, ptr %6, align 8, !tbaa !31
  %8 = getelementptr inbounds nuw %class._scoped_numeral, ptr %5, i32 0, i32 1
  call void @_ZN3mpzC2Ev(ptr noundef nonnull align 8 dereferenceable(16) %8)
  ret void
}

; Function Attrs: mustprogress nounwind uwtable
define linkonce_odr hidden noundef nonnull align 8 dereferenceable(136) ptr @_ZNK11upolynomial12core_manager1mEv(ptr noundef nonnull align 8 dereferenceable(272) %0) #5 comdat align 2 {
  %2 = alloca ptr, align 8
  store ptr %0, ptr %2, align 8, !tbaa !8
  %3 = load ptr, ptr %2, align 8
  %4 = getelementptr inbounds nuw %"class.upolynomial::core_manager", ptr %3, i32 0, i32 1
  ret ptr %4
}

; Function Attrs: mustprogress uwtable
define hidden void @_ZN11upolynomial7manager20compose_an_p_x_div_aEjP3mpzRKS1_(ptr noundef nonnull align 8 dereferenceable(312) %0, i32 noundef %1, ptr noundef %2, ptr noundef nonnull align 8 dereferenceable(16) %3) #4 align 2 personality ptr @__gxx_personality_v0 {
  %5 = alloca ptr, align 8
  %6 = alloca i32, align 4
  %7 = alloca ptr, align 8
  %8 = alloca ptr, align 8
  %9 = alloca i32, align 4
  %10 = alloca %class._scoped_numeral, align 8
  %11 = alloca ptr, align 8
  %12 = alloca i32, align 4
  store ptr %0, ptr %5, align 8, !tbaa !144
  store i32 %1, ptr %6, align 4, !tbaa !33
  store ptr %2, ptr %7, align 8, !tbaa !26
  store ptr %3, ptr %8, align 8, !tbaa !26
  %13 = load ptr, ptr %5, align 8
  %14 = load i32, ptr %6, align 4, !tbaa !33
  %15 = icmp ule i32 %14, 1
  br i1 %15, label %16, label %17

16:                                               ; preds = %4
  br label %69

17:                                               ; preds = %4
  call void @llvm.lifetime.start.p0(i64 4, ptr %9) #3
  %18 = load i32, ptr %6, align 4, !tbaa !33
  %19 = sub i32 %18, 1
  store i32 %19, ptr %9, align 4, !tbaa !33
  call void @llvm.lifetime.start.p0(i64 24, ptr %10) #3
  %20 = call noundef nonnull align 8 dereferenceable(136) ptr @_ZNK11upolynomial12core_manager1mEv(ptr noundef nonnull align 8 dereferenceable(272) %13)
  call void @_ZN15_scoped_numeralI13mpzzp_managerEC2ERS0_(ptr noundef nonnull align 8 dereferenceable(24) %10, ptr noundef nonnull align 8 dereferenceable(136) %20)
  %21 = invoke noundef nonnull align 8 dereferenceable(136) ptr @_ZNK11upolynomial12core_manager1mEv(ptr noundef nonnull align 8 dereferenceable(272) %13)
          to label %22 unwind label %55

22:                                               ; preds = %17
  %23 = invoke noundef nonnull align 8 dereferenceable(16) ptr @_ZN15_scoped_numeralI13mpzzp_managerEcvR3mpzEv(ptr noundef nonnull align 8 dereferenceable(24) %10)
          to label %24 unwind label %55

24:                                               ; preds = %22
  %25 = load ptr, ptr %8, align 8, !tbaa !26
  invoke void @_ZN13mpzzp_manager3setER3mpzRKS0_(ptr noundef nonnull align 8 dereferenceable(136) %21, ptr noundef nonnull align 8 dereferenceable(16) %23, ptr noundef nonnull align 8 dereferenceable(16) %25)
          to label %26 unwind label %55

26:                                               ; preds = %24
  br label %27

27:                                               ; preds = %67, %26
  %28 = load i32, ptr %9, align 4, !tbaa !33
  %29 = icmp ugt i32 %28, 0
  br i1 %29, label %30, label %68

30:                                               ; preds = %27
  %31 = load i32, ptr %9, align 4, !tbaa !33
  %32 = add i32 %31, -1
  store i32 %32, ptr %9, align 4, !tbaa !33
  %33 = invoke noundef nonnull align 8 dereferenceable(136) ptr @_ZNK11upolynomial12core_manager1mEv(ptr noundef nonnull align 8 dereferenceable(272) %13)
          to label %34 unwind label %55

34:                                               ; preds = %30
  %35 = load ptr, ptr %7, align 8, !tbaa !26
  %36 = load i32, ptr %9, align 4, !tbaa !33
  %37 = zext i32 %36 to i64
  %38 = getelementptr inbounds nuw %class.mpz, ptr %35, i64 %37
  %39 = invoke noundef zeroext i1 @_ZN13mpzzp_manager7is_zeroERK3mpz(ptr noundef nonnull align 8 dereferenceable(136) %33, ptr noundef nonnull align 8 dereferenceable(16) %38)
          to label %40 unwind label %55

40:                                               ; preds = %34
  br i1 %39, label %59, label %41

41:                                               ; preds = %40
  %42 = invoke noundef nonnull align 8 dereferenceable(136) ptr @_ZNK11upolynomial12core_manager1mEv(ptr noundef nonnull align 8 dereferenceable(272) %13)
          to label %43 unwind label %55

43:                                               ; preds = %41
  %44 = load ptr, ptr %7, align 8, !tbaa !26
  %45 = load i32, ptr %9, align 4, !tbaa !33
  %46 = zext i32 %45 to i64
  %47 = getelementptr inbounds nuw %class.mpz, ptr %44, i64 %46
  %48 = invoke noundef nonnull align 8 dereferenceable(16) ptr @_ZN15_scoped_numeralI13mpzzp_managerEcvR3mpzEv(ptr noundef nonnull align 8 dereferenceable(24) %10)
          to label %49 unwind label %55

49:                                               ; preds = %43
  %50 = load ptr, ptr %7, align 8, !tbaa !26
  %51 = load i32, ptr %9, align 4, !tbaa !33
  %52 = zext i32 %51 to i64
  %53 = getelementptr inbounds nuw %class.mpz, ptr %50, i64 %52
  invoke void @_ZN13mpzzp_manager3mulERK3mpzS2_RS0_(ptr noundef nonnull align 8 dereferenceable(136) %42, ptr noundef nonnull align 8 dereferenceable(16) %47, ptr noundef nonnull align 8 dereferenceable(16) %48, ptr noundef nonnull align 8 dereferenceable(16) %53)
          to label %54 unwind label %55

54:                                               ; preds = %49
  br label %59

55:                                               ; preds = %66, %63, %61, %59, %49, %43, %41, %34, %30, %24, %22, %17
  %56 = landingpad { ptr, i32 }
          cleanup
  %57 = extractvalue { ptr, i32 } %56, 0
  store ptr %57, ptr %11, align 8
  %58 = extractvalue { ptr, i32 } %56, 1
  store i32 %58, ptr %12, align 4
  call void @_ZN15_scoped_numeralI13mpzzp_managerED2Ev(ptr noundef nonnull align 8 dereferenceable(24) %10) #3
  call void @llvm.lifetime.end.p0(i64 24, ptr %10) #3
  call void @llvm.lifetime.end.p0(i64 4, ptr %9) #3
  br label %70

59:                                               ; preds = %54, %40
  %60 = invoke noundef nonnull align 8 dereferenceable(136) ptr @_ZNK11upolynomial12core_manager1mEv(ptr noundef nonnull align 8 dereferenceable(272) %13)
          to label %61 unwind label %55

61:                                               ; preds = %59
  %62 = invoke noundef nonnull align 8 dereferenceable(16) ptr @_ZN15_scoped_numeralI13mpzzp_managerEcvR3mpzEv(ptr noundef nonnull align 8 dereferenceable(24) %10)
          to label %63 unwind label %55

63:                                               ; preds = %61
  %64 = load ptr, ptr %8, align 8, !tbaa !26
  %65 = invoke noundef nonnull align 8 dereferenceable(16) ptr @_ZN15_scoped_numeralI13mpzzp_managerEcvR3mpzEv(ptr noundef nonnull align 8 dereferenceable(24) %10)
          to label %66 unwind label %55

66:                                               ; preds = %63
  invoke void @_ZN13mpzzp_manager3mulERK3mpzS2_RS0_(ptr noundef nonnull align 8 dereferenceable(136) %60, ptr noundef nonnull align 8 dereferenceable(16) %62, ptr noundef nonnull align 8 dereferenceable(16) %64, ptr noundef nonnull align 8 dereferenceable(16) %65)
          to label %67 unwind label %55

67:                                               ; preds = %66
  br label %27, !llvm.loop !184

68:                                               ; preds = %27
  call void @_ZN15_scoped_numeralI13mpzzp_managerED2Ev(ptr noundef nonnull align 8 dereferenceable(24) %10) #3
  call void @llvm.lifetime.end.p0(i64 24, ptr %10) #3
  call void @llvm.lifetime.end.p0(i64 4, ptr %9) #3
  br label %69

69:                                               ; preds = %68, %16
  ret void

70:                                               ; preds = %55
  %71 = load ptr, ptr %11, align 8
  %72 = load i32, ptr %12, align 4
  %73 = insertvalue { ptr, i32 } poison, ptr %71, 0
  %74 = insertvalue { ptr, i32 } %73, i32 %72, 1
  resume { ptr, i32 } %74
}