; Function Attrs: mustprogress uwtable
define hidden void @_ZN11upolynomial7manager20compose_an_p_x_div_aEjP3mpzRKS1_(ptr noundef nonnull align 8 dereferenceable(312) %0, i32 noundef %1, ptr noundef %2, ptr noundef nonnull align 8 dereferenceable(16) %3) local_unnamed_addr #3 align 2 personality ptr @__gxx_personality_v0 {
  %5 = alloca %class._scoped_numeral, align 8
  %6 = icmp ult i32 %1, 2
  br i1 %6, label %45, label %7

7:                                                ; preds = %4
  %8 = add i32 %1, -1
  call void @llvm.lifetime.start.p0(i64 24, ptr nonnull %5) #25
  %9 = getelementptr inbounds nuw i8, ptr %0, i64 8
  store ptr %9, ptr %5, align 8, !tbaa !86
  %10 = getelementptr inbounds nuw i8, ptr %5, i64 8
  store i32 0, ptr %10, align 8, !tbaa !8
  %11 = getelementptr inbounds nuw i8, ptr %5, i64 12
  store i8 0, ptr %11, align 4
  %12 = getelementptr inbounds nuw i8, ptr %5, i64 16
  store ptr null, ptr %12, align 8, !tbaa !40
  %13 = getelementptr inbounds nuw i8, ptr %3, i64 4
  %14 = load i8, ptr %13, align 4
  %15 = and i8 %14, 1
  %16 = icmp eq i8 %15, 0
  br i1 %16, label %17, label %19

17:                                               ; preds = %7
  %18 = load i32, ptr %3, align 8, !tbaa !8
  store i32 %18, ptr %10, align 8, !tbaa !8
  store i8 0, ptr %11, align 4
  br label %_ZN11mpz_managerILb0EE3setER3mpzRKS1_.exit.i

19:                                               ; preds = %7
  %20 = load ptr, ptr %9, align 8, !tbaa !33
  invoke void @_ZN11mpz_managerILb0EE7big_setER3mpzRKS1_(ptr noundef nonnull align 8 dereferenceable(600) %20, ptr noundef nonnull align 8 dereferenceable(16) %10, ptr noundef nonnull align 8 dereferenceable(16) %3)
          to label %_ZN11mpz_managerILb0EE3setER3mpzRKS1_.exit.i unwind label %.loopexit.split-lp

_ZN11mpz_managerILb0EE3setER3mpzRKS1_.exit.i:     ; preds = %19, %17
  %21 = getelementptr inbounds nuw i8, ptr %0, i64 16
  %22 = load i8, ptr %21, align 8, !tbaa !12, !range !16, !noundef !17
  %23 = trunc nuw i8 %22 to i1
  br i1 %23, label %.lr.ph.preheader, label %24

24:                                               ; preds = %_ZN11mpz_managerILb0EE3setER3mpzRKS1_.exit.i
  invoke void @_ZN13mpzzp_manager16p_normalize_coreER3mpz(ptr noundef nonnull align 8 dereferenceable(136) %9, ptr noundef nonnull align 8 dereferenceable(16) %10)
          to label %.lr.ph.preheader unwind label %.loopexit.split-lp

.lr.ph.preheader:                                 ; preds = %_ZN11mpz_managerILb0EE3setER3mpzRKS1_.exit.i, %24
  %25 = zext i32 %8 to i64
  br label %.lr.ph

.lr.ph:                                           ; preds = %.lr.ph.preheader, %_ZN13mpzzp_manager3mulERK3mpzS2_RS0_.exit20
  %indvars.iv = phi i64 [ %25, %.lr.ph.preheader ], [ %26, %_ZN13mpzzp_manager3mulERK3mpzS2_RS0_.exit20 ]
  %26 = add nsw i64 %indvars.iv, -1
  %27 = getelementptr inbounds nuw %class.mpz, ptr %2, i64 %26
  %28 = load i32, ptr %27, align 8, !tbaa !8
  %29 = icmp eq i32 %28, 0
  br i1 %29, label %_ZN13mpzzp_manager3mulERK3mpzS2_RS0_.exit, label %30

30:                                               ; preds = %.lr.ph
  %31 = load ptr, ptr %9, align 8, !tbaa !33
  invoke void @_ZN11mpz_managerILb0EE3mulERK3mpzS3_RS1_(ptr noundef nonnull align 8 dereferenceable(600) %31, ptr noundef nonnull align 8 dereferenceable(16) %27, ptr noundef nonnull align 8 dereferenceable(16) %10, ptr noundef nonnull align 8 dereferenceable(16) %27)
          to label %.noexc16 unwind label %.loopexit

.noexc16:                                         ; preds = %30
  %32 = load i8, ptr %21, align 8, !tbaa !12, !range !16, !noundef !17
  %33 = trunc nuw i8 %32 to i1
  br i1 %33, label %_ZN13mpzzp_manager3mulERK3mpzS2_RS0_.exit, label %34

34:                                               ; preds = %.noexc16
  invoke void @_ZN13mpzzp_manager16p_normalize_coreER3mpz(ptr noundef nonnull align 8 dereferenceable(136) %9, ptr noundef nonnull align 8 dereferenceable(16) %27)
          to label %_ZN13mpzzp_manager3mulERK3mpzS2_RS0_.exit unwind label %.loopexit

.loopexit:                                        ; preds = %30, %34, %_ZN13mpzzp_manager3mulERK3mpzS2_RS0_.exit, %39
  %lpad.loopexit = landingpad { ptr, i32 }
          cleanup
  br label %35

.loopexit.split-lp:                               ; preds = %19, %24
  %lpad.loopexit.split-lp = landingpad { ptr, i32 }
          cleanup
  br label %35

35:                                               ; preds = %.loopexit.split-lp, %.loopexit
  %lpad.phi = phi { ptr, i32 } [ %lpad.loopexit, %.loopexit ], [ %lpad.loopexit.split-lp, %.loopexit.split-lp ]
  call void @_ZN15_scoped_numeralI13mpzzp_managerED2Ev(ptr noundef nonnull align 8 dereferenceable(24) %5) #25
  call void @llvm.lifetime.end.p0(i64 24, ptr nonnull %5) #25
  resume { ptr, i32 } %lpad.phi

_ZN13mpzzp_manager3mulERK3mpzS2_RS0_.exit:        ; preds = %.noexc16, %34, %.lr.ph
  %36 = load ptr, ptr %9, align 8, !tbaa !33
  invoke void @_ZN11mpz_managerILb0EE3mulERK3mpzS3_RS1_(ptr noundef nonnull align 8 dereferenceable(600) %36, ptr noundef nonnull align 8 dereferenceable(16) %10, ptr noundef nonnull align 8 dereferenceable(16) %3, ptr noundef nonnull align 8 dereferenceable(16) %10)
          to label %.noexc18 unwind label %.loopexit

.noexc18:                                         ; preds = %_ZN13mpzzp_manager3mulERK3mpzS2_RS0_.exit
  %37 = load i8, ptr %21, align 8, !tbaa !12, !range !16, !noundef !17
  %38 = trunc nuw i8 %37 to i1
  br i1 %38, label %_ZN13mpzzp_manager3mulERK3mpzS2_RS0_.exit20, label %39

39:                                               ; preds = %.noexc18
  invoke void @_ZN13mpzzp_manager16p_normalize_coreER3mpz(ptr noundef nonnull align 8 dereferenceable(136) %9, ptr noundef nonnull align 8 dereferenceable(16) %10)
          to label %_ZN13mpzzp_manager3mulERK3mpzS2_RS0_.exit20 unwind label %.loopexit

_ZN13mpzzp_manager3mulERK3mpzS2_RS0_.exit20:      ; preds = %39, %.noexc18
  %.not.wide = icmp eq i64 %26, 0
  br i1 %.not.wide, label %._crit_edge, label %.lr.ph

._crit_edge:                                      ; preds = %_ZN13mpzzp_manager3mulERK3mpzS2_RS0_.exit20
  %40 = load ptr, ptr %5, align 8, !tbaa !89
  %41 = load ptr, ptr %40, align 8, !tbaa !33
  invoke void @_ZN11mpz_managerILb0EE3delEPS0_R3mpz(ptr noundef nonnull align 8 dereferenceable(600) %41, ptr noundef nonnull align 8 dereferenceable(16) %10)
          to label %_ZN15_scoped_numeralI13mpzzp_managerED2Ev.exit unwind label %42

42:                                               ; preds = %._crit_edge
  %43 = landingpad { ptr, i32 }
          catch ptr null
  %44 = extractvalue { ptr, i32 } %43, 0
  call void @__clang_call_terminate(ptr %44) #26
  unreachable

_ZN15_scoped_numeralI13mpzzp_managerED2Ev.exit:   ; preds = %._crit_edge
  call void @llvm.lifetime.end.p0(i64 24, ptr nonnull %5) #25
  br label %45

45:                                               ; preds = %4, %_ZN15_scoped_numeralI13mpzzp_managerED2Ev.exit
  ret void
}